; Function Attrs: nounwind uwtable
define range(i32 0, 2) i32 @Abc_NtkIsAcyclic(ptr noundef captures(none) %0) local_unnamed_addr #0 {
  %2 = getelementptr inbounds nuw i8, ptr %0, i64 232
  %3 = load ptr, ptr %2, align 8, !tbaa !43
  %.not.i = icmp eq ptr %3, null
  br i1 %.not.i, label %6, label %Abc_NtkIncrementTravId.exit.thread

Abc_NtkIncrementTravId.exit.thread:               ; preds = %1
  %4 = getelementptr inbounds nuw i8, ptr %0, i64 216
  %5 = load i32, ptr %4, align 8, !tbaa !14
  br label %Abc_NtkIncrementTravId.exit27

6:                                                ; preds = %1
  %7 = getelementptr inbounds nuw i8, ptr %0, i64 224
  %8 = getelementptr i8, ptr %0, i64 32
  %.val.i = load ptr, ptr %8, align 8, !tbaa !35
  %9 = getelementptr i8, ptr %.val.i, i64 4
  %.val.val.i = load i32, ptr %9, align 4, !tbaa !41
  %10 = add nsw i32 %.val.val.i, 500
  %11 = load i32, ptr %7, align 8, !tbaa !29
  %.not.i.i.i = icmp slt i32 %11, %10
  br i1 %.not.i.i.i, label %12, label %Vec_IntGrow.exit.i.i

12:                                               ; preds = %6
  %13 = sext i32 %10 to i64
  %14 = shl nsw i64 %13, 2
  %15 = tail call noalias ptr @malloc(i64 noundef %14) #22
  store ptr %15, ptr %2, align 8, !tbaa !30
  store i32 %10, ptr %7, align 8, !tbaa !29
  br label %Vec_IntGrow.exit.i.i

Vec_IntGrow.exit.i.i:                             ; preds = %12, %6
  %16 = phi i32 [ %10, %12 ], [ %11, %6 ]
  %.pr = phi ptr [ %15, %12 ], [ null, %6 ]
  %17 = icmp sgt i32 %.val.val.i, -500
  br i1 %17, label %.lr.ph.i.i, label %Abc_NtkIncrementTravId.exit

.lr.ph.i.i:                                       ; preds = %Vec_IntGrow.exit.i.i
  %18 = zext nneg i32 %10 to i64
  %19 = shl nuw nsw i64 %18, 2
  tail call void @llvm.memset.p0.i64(ptr align 4 %.pr, i8 0, i64 %19, i1 false), !tbaa !31
  br label %Abc_NtkIncrementTravId.exit

Abc_NtkIncrementTravId.exit:                      ; preds = %Vec_IntGrow.exit.i.i, %.lr.ph.i.i
  %20 = getelementptr inbounds nuw i8, ptr %0, i64 228
  store i32 %10, ptr %20, align 4, !tbaa !28
  %21 = getelementptr inbounds nuw i8, ptr %0, i64 216
  %22 = load i32, ptr %21, align 8, !tbaa !14
  %.not.i20 = icmp eq ptr %.pr, null
  br i1 %.not.i20, label %23, label %Abc_NtkIncrementTravId.exit27

23:                                               ; preds = %Abc_NtkIncrementTravId.exit
  %.not.i.i.i23 = icmp slt i32 %16, %10
  br i1 %.not.i.i.i23, label %24, label %Vec_IntGrow.exit.i.i24

24:                                               ; preds = %23
  %25 = sext i32 %10 to i64
  %26 = shl nsw i64 %25, 2
  %27 = tail call noalias ptr @malloc(i64 noundef %26) #22
  store ptr %27, ptr %2, align 8, !tbaa !30
  store i32 %10, ptr %7, align 8, !tbaa !29
  br label %Vec_IntGrow.exit.i.i24

Vec_IntGrow.exit.i.i24:                           ; preds = %24, %23
  %28 = phi ptr [ %27, %24 ], [ null, %23 ]
  br i1 %17, label %.lr.ph.i.i26, label %Vec_IntFill.exit.i25

.lr.ph.i.i26:                                     ; preds = %Vec_IntGrow.exit.i.i24
  %29 = zext nneg i32 %10 to i64
  %30 = shl nuw nsw i64 %29, 2
  tail call void @llvm.memset.p0.i64(ptr align 4 %28, i8 0, i64 %30, i1 false), !tbaa !31
  br label %Vec_IntFill.exit.i25

Vec_IntFill.exit.i25:                             ; preds = %.lr.ph.i.i26, %Vec_IntGrow.exit.i.i24
  store i32 %10, ptr %20, align 4, !tbaa !28
  br label %Abc_NtkIncrementTravId.exit27

Abc_NtkIncrementTravId.exit27:                    ; preds = %Abc_NtkIncrementTravId.exit.thread, %Abc_NtkIncrementTravId.exit, %Vec_IntFill.exit.i25
  %.in = phi i32 [ %5, %Abc_NtkIncrementTravId.exit.thread ], [ %22, %Abc_NtkIncrementTravId.exit ], [ %22, %Vec_IntFill.exit.i25 ]
  %31 = phi ptr [ %4, %Abc_NtkIncrementTravId.exit.thread ], [ %21, %Abc_NtkIncrementTravId.exit ], [ %21, %Vec_IntFill.exit.i25 ]
  %32 = add nsw i32 %.in, 2
  store i32 %32, ptr %31, align 8, !tbaa !14
  %33 = getelementptr i8, ptr %0, i64 64
  %.val1631 = load ptr, ptr %33, align 8, !tbaa !48
  %34 = getelementptr i8, ptr %.val1631, i64 4
  %.val16.val32 = load i32, ptr %34, align 4, !tbaa !41
  %35 = icmp sgt i32 %.val16.val32, 0
  br i1 %35, label %.lr.ph, label %.critedge

.lr.ph:                                           ; preds = %Abc_NtkIncrementTravId.exit27, %67
  %indvars.iv = phi i64 [ %indvars.iv.next, %67 ], [ 0, %Abc_NtkIncrementTravId.exit27 ]
  %.val1634 = phi ptr [ %.val16, %67 ], [ %.val1631, %Abc_NtkIncrementTravId.exit27 ]
  %36 = getelementptr i8, ptr %.val1634, i64 8
  %.val17.val = load ptr, ptr %36, align 8, !tbaa !36
  %37 = getelementptr inbounds nuw ptr, ptr %.val17.val, i64 %indvars.iv
  %38 = load ptr, ptr %37, align 8, !tbaa !38
  %.val = load ptr, ptr %38, align 8, !tbaa !3
  %39 = getelementptr i8, ptr %38, i64 32
  %.val15 = load ptr, ptr %39, align 8, !tbaa !34
  %40 = getelementptr i8, ptr %.val, i64 32
  %.val.val = load ptr, ptr %40, align 8, !tbaa !35
  %.val15.val = load i32, ptr %.val15, align 4, !tbaa !31
  %41 = getelementptr i8, ptr %.val.val, i64 8
  %.val.val.val = load ptr, ptr %41, align 8, !tbaa !36
  %42 = sext i32 %.val15.val to i64
  %43 = getelementptr inbounds ptr, ptr %.val.val.val, i64 %42
  %44 = load ptr, ptr %43, align 8, !tbaa !38
  %45 = load ptr, ptr %44, align 8, !tbaa !3
  %.val.i28 = load i32, ptr %45, align 8, !tbaa !32
  %.not.i29 = icmp eq i32 %.val.i28, 1
  br i1 %.not.i29, label %46, label %Abc_ObjFanin0Ntk.exit

46:                                               ; preds = %.lr.ph
  %47 = getelementptr i8, ptr %44, i64 32
  %.val4.i = load ptr, ptr %47, align 8, !tbaa !34
  %48 = getelementptr i8, ptr %45, i64 32
  %.val3.val.i = load ptr, ptr %48, align 8, !tbaa !35
  %.val4.val.i = load i32, ptr %.val4.i, align 4, !tbaa !31
  %49 = getelementptr i8, ptr %.val3.val.i, i64 8
  %.val3.val.val.i = load ptr, ptr %49, align 8, !tbaa !36
  %50 = sext i32 %.val4.val.i to i64
  %51 = getelementptr inbounds ptr, ptr %.val3.val.val.i, i64 %50
  %52 = load ptr, ptr %51, align 8, !tbaa !38
  br label %Abc_ObjFanin0Ntk.exit

Abc_ObjFanin0Ntk.exit:                            ; preds = %.lr.ph, %46
  %53 = phi ptr [ %52, %46 ], [ %44, %.lr.ph ]
  %54 = tail call fastcc i32 @Abc_NodeIsTravIdPrevious(ptr noundef %53)
  %.not = icmp eq i32 %54, 0
  br i1 %.not, label %55, label %67

55:                                               ; preds = %Abc_ObjFanin0Ntk.exit
  %56 = tail call i32 @Abc_NtkIsAcyclic_rec(ptr noundef %53)
  %.not14 = icmp eq i32 %56, 0
  br i1 %.not14, label %57, label %67

57:                                               ; preds = %55
  %58 = load ptr, ptr @stdout, align 8, !tbaa !161
  %.val18 = load ptr, ptr %53, align 8, !tbaa !3
  %59 = getelementptr i8, ptr %53, i64 48
  %.val19 = load ptr, ptr %59, align 8, !tbaa !54
  %60 = getelementptr i8, ptr %.val18, i64 32
  %.val18.val = load ptr, ptr %60, align 8, !tbaa !35
  %.val19.val = load i32, ptr %.val19, align 4, !tbaa !31
  %61 = getelementptr i8, ptr %.val18.val, i64 8
  %.val18.val.val = load ptr, ptr %61, align 8, !tbaa !36
  %62 = sext i32 %.val19.val to i64
  %63 = getelementptr inbounds ptr, ptr %.val18.val.val, i64 %62
  %64 = load ptr, ptr %63, align 8, !tbaa !38
  %65 = tail call ptr @Abc_ObjName(ptr noundef %64) #23
  %66 = tail call i32 (ptr, ptr, ...) @fprintf(ptr noundef %58, ptr noundef nonnull @.str.8, ptr noundef %65) #23
  br label %.critedge

67:                                               ; preds = %55, %Abc_ObjFanin0Ntk.exit
  %indvars.iv.next = add nuw nsw i64 %indvars.iv, 1
  %.val16 = load ptr, ptr %33, align 8, !tbaa !48
  %68 = getelementptr i8, ptr %.val16, i64 4
  %.val16.val = load i32, ptr %68, align 4, !tbaa !41
  %69 = sext i32 %.val16.val to i64
  %70 = icmp slt i64 %indvars.iv.next, %69
  br i1 %70, label %.lr.ph, label %.critedge, !llvm.loop !165

.critedge:                                        ; preds = %67, %Abc_NtkIncrementTravId.exit27, %57
  %.1 = phi i32 [ 0, %57 ], [ 1, %Abc_NtkIncrementTravId.exit27 ], [ 1, %67 ]
  ret i32 %.1
}